; Function Attrs: mustprogress nounwind uwtable
define void @_ZN9t_commrecD2Ev(ptr nocapture noundef nonnull align 8 dereferenceable(108) %0) unnamed_addr #2 align 2 personality ptr @__gxx_personality_v0 {
  %2 = getelementptr inbounds i8, ptr %0, i64 88
  %3 = load ptr, ptr %2, align 8
  %.not.i = icmp eq ptr %3, null
  br i1 %.not.i, label %_ZNSt10unique_ptrI12gmx_domdec_tSt14default_deleteIS0_EED2Ev.exit, label %_ZNKSt14default_deleteI12gmx_domdec_tEclEPS0_.exit.i

_ZNKSt14default_deleteI12gmx_domdec_tEclEPS0_.exit.i: ; preds = %1
  tail call void @_ZN12gmx_domdec_tD1Ev(ptr noundef nonnull align 8 dereferenceable(456) %3) #5
  tail call void @_ZdlPv(ptr noundef nonnull %3) #6
  br label %_ZNSt10unique_ptrI12gmx_domdec_tSt14default_deleteIS0_EED2Ev.exit

_ZNSt10unique_ptrI12gmx_domdec_tSt14default_deleteIS0_EED2Ev.exit: ; preds = %1, %_ZNKSt14default_deleteI12gmx_domdec_tEclEPS0_.exit.i
  store ptr null, ptr %2, align 8
  ret void
}